; Function Attrs: nounwind uwtable
define ptr @l_Lean_Elab_WF_elabWFRel___rarg(ptr noundef %0, ptr noundef %1, ptr noundef %2, ptr noundef %3, ptr noundef %4, ptr noundef %5, ptr noundef %6, ptr noundef %7, ptr noundef %8, ptr noundef %9, ptr noundef %10, ptr noundef %11, ptr noundef %12, ptr noundef %13, ptr noundef %14) #0 {
  tail call void @lean_inc_heartbeat() #5
  %16 = tail call noalias ptr @mi_malloc_small(i64 noundef 80) #5
  %17 = icmp eq ptr %16, null
  br i1 %17, label %18, label %lean_alloc_closure.exit

18:                                               ; preds = %15
  tail call void @lean_internal_panic_out_of_memory() #6
  unreachable

lean_alloc_closure.exit:                          ; preds = %15
  %19 = getelementptr inbounds nuw i8, ptr %16, i64 4
  store i32 1, ptr %16, align 4, !tbaa !8
  store i32 -184549296, ptr %19, align 4
  %20 = getelementptr inbounds nuw i8, ptr %16, i64 8
  store ptr @l_Lean_Elab_WF_elabWFRel___rarg___lambda__1___boxed, ptr %20, align 8, !tbaa !4
  %21 = getelementptr inbounds nuw i8, ptr %16, i64 16
  store i16 14, ptr %21, align 8, !tbaa !16
  %22 = getelementptr inbounds nuw i8, ptr %16, i64 18
  store i16 7, ptr %22, align 2, !tbaa !16
  %23 = getelementptr inbounds nuw i8, ptr %16, i64 24
  store ptr %5, ptr %23, align 8, !tbaa !4
  %24 = getelementptr inbounds nuw i8, ptr %16, i64 32
  store ptr %4, ptr %24, align 8, !tbaa !4
  %25 = getelementptr inbounds nuw i8, ptr %16, i64 40
  store ptr %0, ptr %25, align 8, !tbaa !4
  %26 = getelementptr inbounds nuw i8, ptr %16, i64 48
  store ptr %2, ptr %26, align 8, !tbaa !4
  %27 = getelementptr inbounds nuw i8, ptr %16, i64 56
  store ptr %3, ptr %27, align 8, !tbaa !4
  %28 = getelementptr inbounds nuw i8, ptr %16, i64 64
  store ptr %6, ptr %28, align 8, !tbaa !4
  %29 = getelementptr inbounds nuw i8, ptr %16, i64 72
  store ptr %7, ptr %29, align 8, !tbaa !4
  %30 = tail call ptr @l_Lean_Elab_Term_withDeclName___rarg(ptr noundef %1, ptr noundef nonnull %16, ptr noundef %8, ptr noundef %9, ptr noundef %10, ptr noundef %11, ptr noundef %12, ptr noundef %13, ptr noundef %14) #5
  ret ptr %30
}